target datalayout = "e-m:e-p270:32:32-p271:32:32-p272:64:64-i64:64-i128:128-f80:128-n8:16:32:64-S128"
target triple = "x86_64-pc-linux-gnu"

%struct.Gia_Man_t_ = type { ptr, ptr, i32, i32, i32, i32, ptr, ptr, i32, i32, i32, ptr, ptr, %struct.Vec_Int_t_, %struct.Vec_Int_t_, i32, i32, i32, %struct.Vec_Int_t_, ptr, ptr, ptr, i32, i32, i32, i32, ptr, ptr, ptr, ptr, ptr, i32, i32, ptr, i32, ptr, ptr, ptr, ptr, ptr, ptr, ptr, ptr, ptr, ptr, ptr, ptr, ptr, ptr, ptr, ptr, ptr, ptr, %struct.Vec_Int_t_, %struct.Vec_Int_t_, ptr, ptr, ptr, ptr, ptr, ptr, ptr, ptr, ptr, ptr, ptr, ptr, ptr, ptr, ptr, ptr, ptr, ptr, ptr, ptr, ptr, i32, float, float, ptr, ptr, i32, ptr, ptr, ptr, ptr, ptr, ptr, ptr, ptr, ptr, ptr, ptr, ptr, ptr, ptr, ptr, i64, i64, ptr, ptr, i32, i32, i32, i32, i32, i32, i32, i32, i32, i32, i32, i32, ptr, ptr, ptr, ptr, ptr, ptr, ptr, ptr, i32, i32, i32, ptr, i32, i32, ptr, ptr, ptr, ptr, ptr, ptr, i32, i32, ptr, %struct.Vec_Int_t_, %struct.Vec_Int_t_, %struct.Vec_Int_t_, ptr, ptr, ptr, i32, i32, i32, i32, ptr, ptr, ptr, ptr, ptr }
%struct.Vec_Int_t_ = type { i32, i32, ptr }

; Function Attrs: inlinehint nounwind uwtable
define internal i32 @Abc_LitIsCompl(i32 noundef %0) #1 {
  %2 = alloca i32, align 4
  store i32 %0, ptr %2, align 4, !tbaa !8
  %3 = load i32, ptr %2, align 4, !tbaa !8
  %4 = and i32 %3, 1
  ret i32 %4
}

; Function Attrs: inlinehint nounwind uwtable
define internal i32 @Gia_ObjId(ptr noundef %0, ptr noundef %1) #1 {
  %3 = alloca ptr, align 8
  %4 = alloca ptr, align 8
  store ptr %0, ptr %3, align 8, !tbaa !3
  store ptr %1, ptr %4, align 8, !tbaa !12
  %5 = load ptr, ptr %4, align 8, !tbaa !12
  %6 = load ptr, ptr %3, align 8, !tbaa !3
  %7 = getelementptr inbounds nuw %struct.Gia_Man_t_, ptr %6, i32 0, i32 6
  %8 = load ptr, ptr %7, align 8, !tbaa !46
  %9 = ptrtoint ptr %5 to i64
  %10 = ptrtoint ptr %8 to i64
  %11 = sub i64 %9, %10
  %12 = sdiv exact i64 %11, 12
  %13 = trunc i64 %12 to i32
  ret i32 %13
}

; Function Attrs: inlinehint nounwind uwtable
define internal i32 @Abc_Lit2Var(i32 noundef %0) #1 {
  %2 = alloca i32, align 4
  store i32 %0, ptr %2, align 4, !tbaa !8
  %3 = load i32, ptr %2, align 4, !tbaa !8
  %4 = ashr i32 %3, 1
  ret i32 %4
}

; Function Attrs: inlinehint nounwind uwtable
define internal i32 @Gia_ManAppendXorReal(ptr noundef %0, i32 noundef %1, i32 noundef %2) #1 {
  %4 = alloca ptr, align 8
  %5 = alloca i32, align 4
  %6 = alloca i32, align 4
  %7 = alloca ptr, align 8
  store ptr %0, ptr %4, align 8, !tbaa !3
  store i32 %1, ptr %5, align 4, !tbaa !8
  store i32 %2, ptr %6, align 4, !tbaa !8
  call void @llvm.lifetime.start.p0(i64 8, ptr %7) #12
  %8 = load ptr, ptr %4, align 8, !tbaa !3
  %9 = call ptr @Gia_ManAppendObj(ptr noundef %8)
  store ptr %9, ptr %7, align 8, !tbaa !12
  %10 = load i32, ptr %5, align 4, !tbaa !8
  %11 = call i32 @Abc_Lit2Var(i32 noundef %10)
  %12 = load i32, ptr %6, align 4, !tbaa !8
  %13 = call i32 @Abc_Lit2Var(i32 noundef %12)
  %14 = icmp sgt i32 %11, %13
  br i1 %14, label %15, label %59

15:                                               ; preds = %3
  %16 = load ptr, ptr %4, align 8, !tbaa !3
  %17 = load ptr, ptr %7, align 8, !tbaa !12
  %18 = call i32 @Gia_ObjId(ptr noundef %16, ptr noundef %17)
  %19 = load i32, ptr %5, align 4, !tbaa !8
  %20 = call i32 @Abc_Lit2Var(i32 noundef %19)
  %21 = sub nsw i32 %18, %20
  %22 = load ptr, ptr %7, align 8, !tbaa !12
  %23 = zext i32 %21 to i64
  %24 = load i64, ptr %22, align 4
  %25 = and i64 %23, 536870911
  %26 = and i64 %24, -536870912
  %27 = or i64 %26, %25
  store i64 %27, ptr %22, align 4
  %28 = load i32, ptr %5, align 4, !tbaa !8
  %29 = call i32 @Abc_LitIsCompl(i32 noundef %28)
  %30 = load ptr, ptr %7, align 8, !tbaa !12
  %31 = zext i32 %29 to i64
  %32 = load i64, ptr %30, align 4
  %33 = and i64 %31, 1
  %34 = shl i64 %33, 29
  %35 = and i64 %32, -536870913
  %36 = or i64 %35, %34
  store i64 %36, ptr %30, align 4
  %37 = load ptr, ptr %4, align 8, !tbaa !3
  %38 = load ptr, ptr %7, align 8, !tbaa !12
  %39 = call i32 @Gia_ObjId(ptr noundef %37, ptr noundef %38)
  %40 = load i32, ptr %6, align 4, !tbaa !8
  %41 = call i32 @Abc_Lit2Var(i32 noundef %40)
  %42 = sub nsw i32 %39, %41
  %43 = load ptr, ptr %7, align 8, !tbaa !12
  %44 = zext i32 %42 to i64
  %45 = load i64, ptr %43, align 4
  %46 = and i64 %44, 536870911
  %47 = shl i64 %46, 32
  %48 = and i64 %45, -2305843004918726657
  %49 = or i64 %48, %47
  store i64 %49, ptr %43, align 4
  %50 = load i32, ptr %6, align 4, !tbaa !8
  %51 = call i32 @Abc_LitIsCompl(i32 noundef %50)
  %52 = load ptr, ptr %7, align 8, !tbaa !12
  %53 = zext i32 %51 to i64
  %54 = load i64, ptr %52, align 4
  %55 = and i64 %53, 1
  %56 = shl i64 %55, 61
  %57 = and i64 %54, -2305843009213693953
  %58 = or i64 %57, %56
  store i64 %58, ptr %52, align 4
  br label %103

59:                                               ; preds = %3
  %60 = load ptr, ptr %4, align 8, !tbaa !3
  %61 = load ptr, ptr %7, align 8, !tbaa !12
  %62 = call i32 @Gia_ObjId(ptr noundef %60, ptr noundef %61)
  %63 = load i32, ptr %5, align 4, !tbaa !8
  %64 = call i32 @Abc_Lit2Var(i32 noundef %63)
  %65 = sub nsw i32 %62, %64
  %66 = load ptr, ptr %7, align 8, !tbaa !12
  %67 = zext i32 %65 to i64
  %68 = load i64, ptr %66, align 4
  %69 = and i64 %67, 536870911
  %70 = shl i64 %69, 32
  %71 = and i64 %68, -2305843004918726657
  %72 = or i64 %71, %70
  store i64 %72, ptr %66, align 4
  %73 = load i32, ptr %5, align 4, !tbaa !8
  %74 = call i32 @Abc_LitIsCompl(i32 noundef %73)
  %75 = load ptr, ptr %7, align 8, !tbaa !12
  %76 = zext i32 %74 to i64
  %77 = load i64, ptr %75, align 4
  %78 = and i64 %76, 1
  %79 = shl i64 %78, 61
  %80 = and i64 %77, -2305843009213693953
  %81 = or i64 %80, %79
  store i64 %81, ptr %75, align 4
  %82 = load ptr, ptr %4, align 8, !tbaa !3
  %83 = load ptr, ptr %7, align 8, !tbaa !12
  %84 = call i32 @Gia_ObjId(ptr noundef %82, ptr noundef %83)
  %85 = load i32, ptr %6, align 4, !tbaa !8
  %86 = call i32 @Abc_Lit2Var(i32 noundef %85)
  %87 = sub nsw i32 %84, %86
  %88 = load ptr, ptr %7, align 8, !tbaa !12
  %89 = zext i32 %87 to i64
  %90 = load i64, ptr %88, align 4
  %91 = and i64 %89, 536870911
  %92 = and i64 %90, -536870912
  %93 = or i64 %92, %91
  store i64 %93, ptr %88, align 4
  %94 = load i32, ptr %6, align 4, !tbaa !8
  %95 = call i32 @Abc_LitIsCompl(i32 noundef %94)
  %96 = load ptr, ptr %7, align 8, !tbaa !12
  %97 = zext i32 %95 to i64
  %98 = load i64, ptr %96, align 4
  %99 = and i64 %97, 1
  %100 = shl i64 %99, 29
  %101 = and i64 %98, -536870913
  %102 = or i64 %101, %100
  store i64 %102, ptr %96, align 4
  br label %103

103:                                              ; preds = %59, %15
  %104 = load ptr, ptr %4, align 8, !tbaa !3
  %105 = getelementptr inbounds nuw %struct.Gia_Man_t_, ptr %104, i32 0, i32 8
  %106 = load i32, ptr %105, align 8, !tbaa !55
  %107 = add nsw i32 %106, 1
  store i32 %107, ptr %105, align 8, !tbaa !55
  %108 = load ptr, ptr %4, align 8, !tbaa !3
  %109 = load ptr, ptr %7, align 8, !tbaa !12
  %110 = call i32 @Gia_ObjId(ptr noundef %108, ptr noundef %109)
  %111 = shl i32 %110, 1
  call void @llvm.lifetime.end.p0(i64 8, ptr %7) #12
  ret i32 %111
}