; Function Attrs: inlinehint nounwind uwtable
define internal fastcc range(i32 0, -1) i32 @Gia_ManAppendXorReal(ptr noundef captures(none) %0, i32 noundef %1, i32 noundef %2) unnamed_addr #7 {
  %4 = tail call fastcc ptr @Gia_ManAppendObj(ptr noundef %0)
  %5 = ashr i32 %1, 1
  %6 = ashr i32 %2, 1
  %7 = icmp sgt i32 %5, %6
  %8 = getelementptr i8, ptr %0, i64 32
  %.val = load ptr, ptr %8, align 8, !tbaa !12
  %9 = ptrtoint ptr %4 to i64
  %10 = ptrtoint ptr %.val to i64
  %11 = sub i64 %9, %10
  %12 = sdiv exact i64 %11, 12
  %13 = trunc i64 %12 to i32
  %14 = sub nsw i32 %13, %5
  %15 = load i64, ptr %4, align 4
  %16 = and i32 %14, 536870911
  %17 = zext nneg i32 %16 to i64
  br i1 %7, label %18, label %39

18:                                               ; preds = %3
  %19 = and i64 %15, -1073741824
  %20 = shl i32 %1, 29
  %21 = and i32 %20, 536870912
  %22 = zext nneg i32 %21 to i64
  %23 = or disjoint i64 %19, %22
  %24 = or disjoint i64 %23, %17
  store i64 %24, ptr %4, align 4
  %.val29 = load ptr, ptr %8, align 8, !tbaa !12
  %25 = ptrtoint ptr %.val29 to i64
  %26 = sub i64 %9, %25
  %27 = sdiv exact i64 %26, 12
  %28 = trunc i64 %27 to i32
  %29 = sub nsw i32 %28, %6
  %30 = and i32 %29, 536870911
  %31 = zext nneg i32 %30 to i64
  %32 = shl nuw nsw i64 %31, 32
  %33 = and i64 %24, -4611686014132420609
  %34 = or disjoint i64 %32, %33
  %35 = and i32 %2, 1
  %36 = zext nneg i32 %35 to i64
  %37 = shl nuw nsw i64 %36, 61
  %38 = or disjoint i64 %34, %37
  br label %60

39:                                               ; preds = %3
  %40 = shl nuw nsw i64 %17, 32
  %41 = and i64 %15, -4611686014132420609
  %42 = or disjoint i64 %40, %41
  %43 = and i32 %1, 1
  %44 = zext nneg i32 %43 to i64
  %45 = shl nuw nsw i64 %44, 61
  %46 = or disjoint i64 %42, %45
  store i64 %46, ptr %4, align 4
  %.val31 = load ptr, ptr %8, align 8, !tbaa !12
  %47 = ptrtoint ptr %.val31 to i64
  %48 = sub i64 %9, %47
  %49 = sdiv exact i64 %48, 12
  %50 = trunc i64 %49 to i32
  %51 = sub nsw i32 %50, %6
  %52 = and i32 %51, 536870911
  %53 = zext nneg i32 %52 to i64
  %54 = and i64 %46, -1073741824
  %55 = or disjoint i64 %54, %53
  %56 = shl i32 %2, 29
  %57 = and i32 %56, 536870912
  %58 = zext nneg i32 %57 to i64
  %59 = or disjoint i64 %55, %58
  br label %60

60:                                               ; preds = %39, %18
  %storemerge = phi i64 [ %59, %39 ], [ %38, %18 ]
  store i64 %storemerge, ptr %4, align 4
  %61 = getelementptr inbounds nuw i8, ptr %0, i64 48
  %62 = load i32, ptr %61, align 8, !tbaa !49
  %63 = add nsw i32 %62, 1
  store i32 %63, ptr %61, align 8, !tbaa !49
  %64 = getelementptr i8, ptr %0, i64 32
  %.val32 = load ptr, ptr %64, align 8, !tbaa !12
  %65 = ptrtoint ptr %.val32 to i64
  %66 = sub i64 %9, %65
  %67 = sdiv exact i64 %66, 12
  %68 = trunc i64 %67 to i32
  %69 = shl i32 %68, 1
  ret i32 %69
}